; Function Attrs: nounwind uwtable
define hidden void @_glfwInputChar(ptr noundef %0, i32 noundef %1, i32 noundef %2, i32 noundef %3) local_unnamed_addr #0 {
  %5 = icmp ult i32 %1, 32
  %6 = add i32 %1, -127
  %or.cond = icmp ult i32 %6, 33
  %or.cond21 = or i1 %5, %or.cond
  br i1 %or.cond21, label %19, label %7

7:                                                ; preds = %4
  %8 = getelementptr inbounds nuw i8, ptr %0, i64 840
  %9 = load ptr, ptr %8, align 8, !tbaa !53
  %.not18 = icmp eq ptr %9, null
  br i1 %.not18, label %14, label %10

10:                                               ; preds = %7
  %11 = getelementptr inbounds nuw i8, ptr %0, i64 136
  %12 = load i32, ptr %11, align 8, !tbaa !52
  %.not = icmp eq i32 %12, 0
  %13 = and i32 %2, -49
  %spec.select = select i1 %.not, i32 %13, i32 %2
  tail call void %9(ptr noundef nonnull %0, i32 noundef %1, i32 noundef %spec.select) #12
  br label %14

14:                                               ; preds = %10, %7
  %.not19 = icmp eq i32 %3, 0
  br i1 %.not19, label %19, label %15

15:                                               ; preds = %14
  %16 = getelementptr inbounds nuw i8, ptr %0, i64 832
  %17 = load ptr, ptr %16, align 8, !tbaa !54
  %.not20 = icmp eq ptr %17, null
  br i1 %.not20, label %19, label %18

18:                                               ; preds = %15
  tail call void %17(ptr noundef nonnull %0, i32 noundef %1) #12
  br label %19

19:                                               ; preds = %15, %18, %4, %14
  ret void
}